; Function Attrs: mustprogress uwtable
define hidden noundef zeroext i16 @_ZN6Assimp4Ogre20OgreBinarySerializer10ReadHeaderEb(ptr nocapture noundef nonnull align 8 dereferenceable(20) %this, i1 noundef zeroext %readLen) local_unnamed_addr #2 align 2 personality ptr @__gxx_personality_v0 {
entry:
  %m_reader.i = getelementptr inbounds i8, ptr %this, i64 8
  %0 = load ptr, ptr %m_reader.i, align 8
  %mCurrent.i.i.i = getelementptr inbounds i8, ptr %0, i64 24
  %1 = load ptr, ptr %mCurrent.i.i.i, align 8
  %add.ptr.i.i.i = getelementptr inbounds i8, ptr %1, i64 2
  %mLimit.i.i.i = getelementptr inbounds i8, ptr %0, i64 40
  %2 = load ptr, ptr %mLimit.i.i.i, align 8
  %cmp.i.i.i = icmp ugt ptr %add.ptr.i.i.i, %2
  br i1 %cmp.i.i.i, label %if.then.i.i.i, label %_ZN6Assimp4Ogre20OgreBinarySerializer4ReadItEET_v.exit

if.then.i.i.i:                                    ; preds = %entry
  %exception.i.i.i = tail call ptr @__cxa_allocate_exception(i64 16) #19
  invoke void @_ZN17DeadlyImportErrorC2EPKc(ptr noundef nonnull align 8 dereferenceable(16) %exception.i.i.i, ptr noundef nonnull @.str.66)
          to label %invoke.cont.i.i.i unwind label %lpad.i.i.i

invoke.cont.i.i.i:                                ; preds = %if.then.i.i.i
  tail call void @__cxa_throw(ptr nonnull %exception.i.i.i, ptr nonnull @_ZTI17DeadlyImportError, ptr nonnull @_ZN17DeadlyImportErrorD2Ev) #20
  unreachable

common.resume:                                    ; preds = %lpad.i.i.i8, %lpad.i.i.i
  %exception.i.i.i7.sink = phi ptr [ %exception.i.i.i7, %lpad.i.i.i8 ], [ %exception.i.i.i, %lpad.i.i.i ]
  %common.resume.op = phi { ptr, i32 } [ %8, %lpad.i.i.i8 ], [ %3, %lpad.i.i.i ]
  tail call void @__cxa_free_exception(ptr %exception.i.i.i7.sink) #19
  resume { ptr, i32 } %common.resume.op

lpad.i.i.i:                                       ; preds = %if.then.i.i.i
  %3 = landingpad { ptr, i32 }
          cleanup
  br label %common.resume

_ZN6Assimp4Ogre20OgreBinarySerializer4ReadItEET_v.exit: ; preds = %entry
  %4 = load i16, ptr %1, align 1
  store ptr %add.ptr.i.i.i, ptr %mCurrent.i.i.i, align 8
  br i1 %readLen, label %if.then, label %if.end

if.then:                                          ; preds = %_ZN6Assimp4Ogre20OgreBinarySerializer4ReadItEET_v.exit
  %5 = load ptr, ptr %m_reader.i, align 8
  %mCurrent.i.i.i2 = getelementptr inbounds i8, ptr %5, i64 24
  %6 = load ptr, ptr %mCurrent.i.i.i2, align 8
  %add.ptr.i.i.i3 = getelementptr inbounds i8, ptr %6, i64 4
  %mLimit.i.i.i4 = getelementptr inbounds i8, ptr %5, i64 40
  %7 = load ptr, ptr %mLimit.i.i.i4, align 8
  %cmp.i.i.i5 = icmp ugt ptr %add.ptr.i.i.i3, %7
  br i1 %cmp.i.i.i5, label %if.then.i.i.i6, label %_ZN6Assimp4Ogre20OgreBinarySerializer4ReadIjEET_v.exit

if.then.i.i.i6:                                   ; preds = %if.then
  %exception.i.i.i7 = tail call ptr @__cxa_allocate_exception(i64 16) #19
  invoke void @_ZN17DeadlyImportErrorC2EPKc(ptr noundef nonnull align 8 dereferenceable(16) %exception.i.i.i7, ptr noundef nonnull @.str.66)
          to label %invoke.cont.i.i.i9 unwind label %lpad.i.i.i8

invoke.cont.i.i.i9:                               ; preds = %if.then.i.i.i6
  tail call void @__cxa_throw(ptr nonnull %exception.i.i.i7, ptr nonnull @_ZTI17DeadlyImportError, ptr nonnull @_ZN17DeadlyImportErrorD2Ev) #20
  unreachable

lpad.i.i.i8:                                      ; preds = %if.then.i.i.i6
  %8 = landingpad { ptr, i32 }
          cleanup
  br label %common.resume

_ZN6Assimp4Ogre20OgreBinarySerializer4ReadIjEET_v.exit: ; preds = %if.then
  %9 = load i32, ptr %6, align 1
  store ptr %add.ptr.i.i.i3, ptr %mCurrent.i.i.i2, align 8
  store i32 %9, ptr %this, align 8
  br label %if.end

if.end:                                           ; preds = %_ZN6Assimp4Ogre20OgreBinarySerializer4ReadIjEET_v.exit, %_ZN6Assimp4Ogre20OgreBinarySerializer4ReadItEET_v.exit
  ret i16 %4
}